; Function Attrs: mustprogress uwtable
define hidden void @_ZN19OpenColorIO_v2_5dev10BuildLogOpERNS_10OpRcPtrVecERKNS_18LogAffineTransformENS_18TransformDirectionE(ptr noundef nonnull align 8 dereferenceable(144) %0, ptr noundef nonnull align 8 dereferenceable(8) %1, i32 noundef %2) local_unnamed_addr #3 personality ptr @__gxx_personality_v0 {
  %4 = alloca %"class.std::shared_ptr", align 8
  %5 = tail call ptr @__dynamic_cast(ptr nonnull %1, ptr nonnull @_ZTIN19OpenColorIO_v2_5dev18LogAffineTransformE, ptr nonnull @_ZTIN19OpenColorIO_v2_5dev22LogAffineTransformImplE, i64 0) #20
  %6 = icmp eq ptr %5, null
  br i1 %6, label %7, label %8

7:                                                ; preds = %3
  tail call void @__cxa_bad_cast() #23
  unreachable

8:                                                ; preds = %3
  %9 = getelementptr inbounds nuw i8, ptr %5, i64 8
  %10 = load ptr, ptr %9, align 8, !tbaa !12
  %11 = getelementptr inbounds nuw i8, ptr %10, i64 16
  %12 = load ptr, ptr %11, align 8
  tail call void %12(ptr noundef nonnull align 8 dereferenceable(252) %9)
  call void @llvm.lifetime.start.p0(i64 16, ptr nonnull %4) #20
  call void @_ZNK19OpenColorIO_v2_5dev9LogOpData5cloneEv(ptr dead_on_unwind nonnull writable sret(%"class.std::shared_ptr") align 8 %4, ptr noundef nonnull align 8 dereferenceable(252) %9)
  invoke void @_ZN19OpenColorIO_v2_5dev11CreateLogOpERNS_10OpRcPtrVecERSt10shared_ptrINS_9LogOpDataEENS_18TransformDirectionE(ptr noundef nonnull align 8 dereferenceable(144) %0, ptr noundef nonnull align 8 dereferenceable(16) %4, i32 noundef %2)
          to label %13 unwind label %37

13:                                               ; preds = %8
  %14 = getelementptr inbounds nuw i8, ptr %4, i64 8
  %15 = load ptr, ptr %14, align 8, !tbaa !14
  %.not.i.i = icmp eq ptr %15, null
  br i1 %.not.i.i, label %_ZNSt12__shared_ptrIN19OpenColorIO_v2_5dev9LogOpDataELN9__gnu_cxx12_Lock_policyE2EED2Ev.exit, label %16

16:                                               ; preds = %13
  %17 = getelementptr inbounds nuw i8, ptr %15, i64 8
  %18 = load atomic i64, ptr %17 acquire, align 8
  %19 = icmp eq i64 %18, 4294967297
  %20 = trunc i64 %18 to i32
  br i1 %19, label %21, label %29

21:                                               ; preds = %16
  store i32 0, ptr %17, align 8, !tbaa !6
  %22 = getelementptr inbounds nuw i8, ptr %15, i64 12
  store i32 0, ptr %22, align 4, !tbaa !11
  %23 = load ptr, ptr %15, align 8, !tbaa !12
  %24 = getelementptr inbounds nuw i8, ptr %23, i64 16
  %25 = load ptr, ptr %24, align 8
  call void %25(ptr noundef nonnull align 8 dereferenceable(16) %15) #20
  %26 = load ptr, ptr %15, align 8, !tbaa !12
  %27 = getelementptr inbounds nuw i8, ptr %26, i64 24
  %28 = load ptr, ptr %27, align 8
  call void %28(ptr noundef nonnull align 8 dereferenceable(16) %15) #20
  br label %_ZNSt12__shared_ptrIN19OpenColorIO_v2_5dev9LogOpDataELN9__gnu_cxx12_Lock_policyE2EED2Ev.exit

29:                                               ; preds = %16
  %30 = load i8, ptr @__libc_single_threaded, align 1, !tbaa !26
  %.not.i.i.i = icmp eq i8 %30, 0
  br i1 %.not.i.i.i, label %33, label %31

31:                                               ; preds = %29
  %32 = add nsw i32 %20, -1
  store i32 %32, ptr %17, align 4, !tbaa !27
  br label %_ZN9__gnu_cxx27__exchange_and_add_dispatchEPii.exit.i.i.i

33:                                               ; preds = %29
  %34 = atomicrmw volatile add ptr %17, i32 -1 acq_rel, align 4
  br label %_ZN9__gnu_cxx27__exchange_and_add_dispatchEPii.exit.i.i.i

_ZN9__gnu_cxx27__exchange_and_add_dispatchEPii.exit.i.i.i: ; preds = %33, %31
  %.0.i.i.i.i = phi i32 [ %20, %31 ], [ %34, %33 ]
  %35 = icmp eq i32 %.0.i.i.i.i, 1
  br i1 %35, label %36, label %_ZNSt12__shared_ptrIN19OpenColorIO_v2_5dev9LogOpDataELN9__gnu_cxx12_Lock_policyE2EED2Ev.exit, !prof !28

36:                                               ; preds = %_ZN9__gnu_cxx27__exchange_and_add_dispatchEPii.exit.i.i.i
  call void @_ZNSt16_Sp_counted_baseILN9__gnu_cxx12_Lock_policyE2EE24_M_release_last_use_coldEv(ptr noundef nonnull align 8 dereferenceable(16) %15) #20
  br label %_ZNSt12__shared_ptrIN19OpenColorIO_v2_5dev9LogOpDataELN9__gnu_cxx12_Lock_policyE2EED2Ev.exit

_ZNSt12__shared_ptrIN19OpenColorIO_v2_5dev9LogOpDataELN9__gnu_cxx12_Lock_policyE2EED2Ev.exit: ; preds = %13, %21, %_ZN9__gnu_cxx27__exchange_and_add_dispatchEPii.exit.i.i.i, %36
  call void @llvm.lifetime.end.p0(i64 16, ptr nonnull %4) #20
  ret void

37:                                               ; preds = %8
  %38 = landingpad { ptr, i32 }
          cleanup
  call void @_ZNSt12__shared_ptrIN19OpenColorIO_v2_5dev9LogOpDataELN9__gnu_cxx12_Lock_policyE2EED2Ev(ptr noundef nonnull align 8 dereferenceable(16) %4) #20
  call void @llvm.lifetime.end.p0(i64 16, ptr nonnull %4) #20
  resume { ptr, i32 } %38
}